target datalayout = "e-m:e-p270:32:32-p271:32:32-p272:64:64-i64:64-i128:128-f80:128-n8:16:32:64-S128"
target triple = "x86_64-pc-linux-gnu"

%struct.Vec_Int_t_ = type { i32, i32, ptr }

; Function Attrs: inlinehint nounwind uwtable
define internal i32 @Vec_IntEntry(ptr noundef %0, i32 noundef %1) #2 {
  %3 = alloca ptr, align 8
  %4 = alloca i32, align 4
  store ptr %0, ptr %3, align 8, !tbaa !25
  store i32 %1, ptr %4, align 4, !tbaa !10
  %5 = load ptr, ptr %3, align 8, !tbaa !25
  %6 = getelementptr inbounds nuw %struct.Vec_Int_t_, ptr %5, i32 0, i32 2
  %7 = load ptr, ptr %6, align 8, !tbaa !34
  %8 = load i32, ptr %4, align 4, !tbaa !10
  %9 = sext i32 %8 to i64
  %10 = getelementptr inbounds i32, ptr %7, i64 %9
  %11 = load i32, ptr %10, align 4, !tbaa !10
  ret i32 %11
}

; Function Attrs: inlinehint nounwind uwtable
define internal i32 @Vec_IntSize(ptr noundef %0) #2 {
  %2 = alloca ptr, align 8
  store ptr %0, ptr %2, align 8, !tbaa !25
  %3 = load ptr, ptr %2, align 8, !tbaa !25
  %4 = getelementptr inbounds nuw %struct.Vec_Int_t_, ptr %3, i32 0, i32 1
  %5 = load i32, ptr %4, align 4, !tbaa !32
  ret i32 %5
}

; Function Attrs: nounwind uwtable
define i32 @Abc_IsopCountLits(ptr noundef %0, i32 noundef %1) #0 {
  %3 = alloca i32, align 4
  %4 = alloca ptr, align 8
  %5 = alloca i32, align 4
  %6 = alloca i32, align 4
  %7 = alloca i32, align 4
  %8 = alloca i32, align 4
  %9 = alloca i32, align 4
  %10 = alloca i32, align 4
  %11 = alloca i32, align 4
  store ptr %0, ptr %4, align 8, !tbaa !25
  store i32 %1, ptr %5, align 4, !tbaa !10
  call void @llvm.lifetime.start.p0(i64 4, ptr %6) #9
  call void @llvm.lifetime.start.p0(i64 4, ptr %7) #9
  call void @llvm.lifetime.start.p0(i64 4, ptr %8) #9
  call void @llvm.lifetime.start.p0(i64 4, ptr %9) #9
  call void @llvm.lifetime.start.p0(i64 4, ptr %10) #9
  store i32 0, ptr %10, align 4, !tbaa !10
  %12 = load ptr, ptr %4, align 8, !tbaa !25
  %13 = call i32 @Vec_IntSize(ptr noundef %12)
  %14 = icmp eq i32 %13, 0
  br i1 %14, label %23, label %15

15:                                               ; preds = %2
  %16 = load ptr, ptr %4, align 8, !tbaa !25
  %17 = call i32 @Vec_IntSize(ptr noundef %16)
  %18 = icmp eq i32 %17, 1
  br i1 %18, label %19, label %24

19:                                               ; preds = %15
  %20 = load ptr, ptr %4, align 8, !tbaa !25
  %21 = call i32 @Vec_IntEntry(ptr noundef %20, i32 noundef 0)
  %22 = icmp eq i32 %21, 0
  br i1 %22, label %23, label %24

23:                                               ; preds = %19, %2
  store i32 0, ptr %3, align 4
  store i32 1, ptr %11, align 4
  br label %74

24:                                               ; preds = %19, %15
  store i32 0, ptr %6, align 4, !tbaa !10
  br label %25

25:                                               ; preds = %69, %24
  %26 = load i32, ptr %6, align 4, !tbaa !10
  %27 = load ptr, ptr %4, align 8, !tbaa !25
  %28 = call i32 @Vec_IntSize(ptr noundef %27)
  %29 = icmp slt i32 %26, %28
  br i1 %29, label %30, label %34

30:                                               ; preds = %25
  %31 = load ptr, ptr %4, align 8, !tbaa !25
  %32 = load i32, ptr %6, align 4, !tbaa !10
  %33 = call i32 @Vec_IntEntry(ptr noundef %31, i32 noundef %32)
  store i32 %33, ptr %8, align 4, !tbaa !10
  br label %34

34:                                               ; preds = %30, %25
  %35 = phi i1 [ false, %25 ], [ true, %30 ]
  br i1 %35, label %36, label %72

36:                                               ; preds = %34
  store i32 0, ptr %7, align 4, !tbaa !10
  br label %37

37:                                               ; preds = %65, %36
  %38 = load i32, ptr %7, align 4, !tbaa !10
  %39 = load i32, ptr %5, align 4, !tbaa !10
  %40 = icmp slt i32 %38, %39
  br i1 %40, label %41, label %68

41:                                               ; preds = %37
  %42 = load i32, ptr %8, align 4, !tbaa !10
  %43 = load i32, ptr %7, align 4, !tbaa !10
  %44 = shl i32 %43, 1
  %45 = ashr i32 %42, %44
  %46 = and i32 3, %45
  store i32 %46, ptr %9, align 4, !tbaa !10
  %47 = load i32, ptr %9, align 4, !tbaa !10
  %48 = icmp eq i32 %47, 1
  br i1 %48, label %49, label %52

49:                                               ; preds = %41
  %50 = load i32, ptr %10, align 4, !tbaa !10
  %51 = add nsw i32 %50, 1
  store i32 %51, ptr %10, align 4, !tbaa !10
  br label %64

52:                                               ; preds = %41
  %53 = load i32, ptr %9, align 4, !tbaa !10
  %54 = icmp eq i32 %53, 2
  br i1 %54, label %55, label %58

55:                                               ; preds = %52
  %56 = load i32, ptr %10, align 4, !tbaa !10
  %57 = add nsw i32 %56, 1
  store i32 %57, ptr %10, align 4, !tbaa !10
  br label %63

58:                                               ; preds = %52
  %59 = load i32, ptr %9, align 4, !tbaa !10
  %60 = icmp ne i32 %59, 0
  br i1 %60, label %61, label %62

61:                                               ; preds = %58
  br label %62

62:                                               ; preds = %61, %58
  br label %63

63:                                               ; preds = %62, %55
  br label %64

64:                                               ; preds = %63, %49
  br label %65

65:                                               ; preds = %64
  %66 = load i32, ptr %7, align 4, !tbaa !10
  %67 = add nsw i32 %66, 1
  store i32 %67, ptr %7, align 4, !tbaa !10
  br label %37, !llvm.loop !46

68:                                               ; preds = %37
  br label %69

69:                                               ; preds = %68
  %70 = load i32, ptr %6, align 4, !tbaa !10
  %71 = add nsw i32 %70, 1
  store i32 %71, ptr %6, align 4, !tbaa !10
  br label %25, !llvm.loop !47

72:                                               ; preds = %34
  %73 = load i32, ptr %10, align 4, !tbaa !10
  store i32 %73, ptr %3, align 4
  store i32 1, ptr %11, align 4
  br label %74

74:                                               ; preds = %72, %23
  call void @llvm.lifetime.end.p0(i64 4, ptr %10) #9
  call void @llvm.lifetime.end.p0(i64 4, ptr %9) #9
  call void @llvm.lifetime.end.p0(i64 4, ptr %8) #9
  call void @llvm.lifetime.end.p0(i64 4, ptr %7) #9
  call void @llvm.lifetime.end.p0(i64 4, ptr %6) #9
  %75 = load i32, ptr %3, align 4
  ret i32 %75
}