; Function Attrs: nofree norecurse nosync nounwind memory(read, inaccessiblemem: none) uwtable
define i32 @Abc_IsopCountLits(ptr noundef readonly captures(none) %0, i32 noundef %1) local_unnamed_addr #4 {
  %3 = getelementptr i8, ptr %0, i64 4
  %.val24 = load i32, ptr %3, align 4, !tbaa !26
  switch i32 %.val24, label %7 [
    i32 0, label %.critedge
    i32 1, label %4
  ]

4:                                                ; preds = %2
  %5 = getelementptr i8, ptr %0, i64 8
  %.val26 = load ptr, ptr %5, align 8, !tbaa !29
  %6 = load i32, ptr %.val26, align 4, !tbaa !7
  %.not = icmp eq i32 %6, 0
  br i1 %.not, label %.critedge, label %.lr.ph32

7:                                                ; preds = %2
  %.old = icmp sgt i32 %.val24, 0
  br i1 %.old, label %..lr.ph32_crit_edge, label %.critedge

..lr.ph32_crit_edge:                              ; preds = %7
  %.phi.trans.insert = getelementptr i8, ptr %0, i64 8
  %.val25.pre = load ptr, ptr %.phi.trans.insert, align 8, !tbaa !29
  br label %.lr.ph32

.lr.ph32:                                         ; preds = %..lr.ph32_crit_edge, %4
  %.val25 = phi ptr [ %.val25.pre, %..lr.ph32_crit_edge ], [ %.val26, %4 ]
  %8 = icmp sgt i32 %1, 0
  br i1 %8, label %.lr.ph.us.preheader, label %.critedge

.lr.ph.us.preheader:                              ; preds = %.lr.ph32
  %wide.trip.count = zext nneg i32 %.val24 to i64
  br label %.lr.ph.us

.lr.ph.us:                                        ; preds = %.lr.ph.us.preheader, %._crit_edge.us
  %indvars.iv = phi i64 [ 0, %.lr.ph.us.preheader ], [ %indvars.iv.next, %._crit_edge.us ]
  %.030.us = phi i32 [ 0, %.lr.ph.us.preheader ], [ %.2.us, %._crit_edge.us ]
  %9 = getelementptr inbounds nuw i32, ptr %.val25, i64 %indvars.iv
  %10 = load i32, ptr %9, align 4, !tbaa !7
  br label %11

11:                                               ; preds = %.lr.ph.us, %19
  %.128.us = phi i32 [ %.030.us, %.lr.ph.us ], [ %.2.us, %19 ]
  %.02127.us = phi i32 [ 0, %.lr.ph.us ], [ %20, %19 ]
  %12 = shl nuw i32 %.02127.us, 1
  %13 = ashr i32 %10, %12
  %14 = and i32 %13, 3
  switch i32 %14, label %19 [
    i32 1, label %17
    i32 2, label %15
  ]

15:                                               ; preds = %11
  %16 = add nsw i32 %.128.us, 1
  br label %19

17:                                               ; preds = %11
  %18 = add nsw i32 %.128.us, 1
  br label %19

19:                                               ; preds = %17, %15, %11
  %.2.us = phi i32 [ %18, %17 ], [ %16, %15 ], [ %.128.us, %11 ]
  %20 = add nuw nsw i32 %.02127.us, 1
  %exitcond.not = icmp eq i32 %20, %1
  br i1 %exitcond.not, label %._crit_edge.us, label %11, !llvm.loop !40

._crit_edge.us:                                   ; preds = %19
  %indvars.iv.next = add nuw nsw i64 %indvars.iv, 1
  %exitcond36.not = icmp eq i64 %indvars.iv.next, %wide.trip.count
  br i1 %exitcond36.not, label %.critedge, label %.lr.ph.us, !llvm.loop !41

.critedge:                                        ; preds = %._crit_edge.us, %.lr.ph32, %7, %2, %4
  %.019 = phi i32 [ 0, %4 ], [ %.val24, %2 ], [ 0, %7 ], [ 0, %.lr.ph32 ], [ %.2.us, %._crit_edge.us ]
  ret i32 %.019
}